; Function Attrs: nounwind uwtable
define hidden ptr @cmsIT8Alloc(ptr noundef %0) local_unnamed_addr #0 {
  %2 = tail call ptr @_cmsMallocZero(ptr noundef %0, i32 noundef 271744) #17
  %3 = icmp eq ptr %2, null
  br i1 %3, label %.loopexit, label %4

4:                                                ; preds = %1
  %5 = getelementptr inbounds i8, ptr %2, i64 16
  %6 = load i32, ptr %2, align 8
  %7 = zext i32 %6 to i64
  %8 = getelementptr inbounds %struct._Table, ptr %5, i64 %7, i32 4
  %9 = add i32 %6, 1
  tail call void @llvm.memset.p0.i64(ptr noundef nonnull align 8 dereferenceable(24) %8, i8 0, i64 24, i1 false)
  store i32 %9, ptr %2, align 8
  %10 = getelementptr inbounds i8, ptr %2, i64 271600
  store ptr null, ptr %10, align 8
  %11 = getelementptr inbounds i8, ptr %2, i64 271336
  store ptr null, ptr %11, align 8
  %12 = getelementptr inbounds i8, ptr %2, i64 8
  store i32 0, ptr %12, align 8
  %13 = getelementptr inbounds i8, ptr %2, i64 4
  store i32 0, ptr %13, align 4
  %14 = getelementptr inbounds i8, ptr %2, i64 271736
  store ptr %0, ptr %14, align 8
  %15 = getelementptr inbounds i8, ptr %2, i64 271344
  %16 = getelementptr inbounds i8, ptr %2, i64 271356
  %17 = getelementptr inbounds i8, ptr %2, i64 271352
  %18 = getelementptr inbounds i8, ptr %2, i64 271400
  %19 = getelementptr inbounds i8, ptr %2, i64 271408
  %20 = getelementptr inbounds i8, ptr %2, i64 271364
  tail call void @llvm.memset.p0.i64(ptr noundef nonnull align 8 dereferenceable(20) %15, i8 0, i64 20, i1 false)
  tail call void @llvm.memset.p0.i64(ptr noundef nonnull align 8 dereferenceable(16) %18, i8 0, i64 16, i1 false)
  store i32 32, ptr %20, align 4
  %21 = getelementptr inbounds i8, ptr %2, i64 271416
  store ptr null, ptr %21, align 8
  %22 = getelementptr inbounds i8, ptr %2, i64 271368
  store i32 0, ptr %22, align 8
  %23 = getelementptr inbounds i8, ptr %2, i64 271376
  store double 0.000000e+00, ptr %23, align 8
  store i32 20480, ptr %17, align 8
  %24 = tail call ptr @_cmsMallocZero(ptr noundef %0, i32 noundef 20480) #17
  %.not.i.i = icmp eq ptr %24, null
  br i1 %.not.i.i, label %.thread, label %25

25:                                               ; preds = %4
  %26 = load ptr, ptr %14, align 8
  %27 = tail call ptr @_cmsMallocZero(ptr noundef %26, i32 noundef 16) #17
  %28 = icmp eq ptr %27, null
  br i1 %28, label %29, label %31

29:                                               ; preds = %25
  %30 = load ptr, ptr %14, align 8
  tail call void @_cmsFree(ptr noundef %30, ptr noundef nonnull %24) #17
  br label %.thread

.thread:                                          ; preds = %29, %4
  store ptr null, ptr %15, align 8
  br label %AllocChunk.exit

31:                                               ; preds = %25
  %32 = getelementptr inbounds i8, ptr %27, i64 8
  store ptr %24, ptr %32, align 8
  %33 = load ptr, ptr %11, align 8
  store ptr %33, ptr %27, align 8
  store ptr %27, ptr %11, align 8
  store ptr %24, ptr %15, align 8
  %34 = load i32, ptr %16, align 4
  %35 = zext i32 %34 to i64
  %36 = getelementptr inbounds i8, ptr %24, i64 %35
  %37 = add i32 %34, 264
  store i32 %37, ptr %16, align 4
  br label %AllocChunk.exit

AllocChunk.exit:                                  ; preds = %.thread, %31
  %.0.i = phi ptr [ %36, %31 ], [ null, %.thread ]
  %38 = getelementptr inbounds i8, ptr %2, i64 271432
  store ptr %.0.i, ptr %38, align 8
  %39 = getelementptr inbounds i8, ptr %2, i64 271592
  store i32 0, ptr %39, align 8
  %40 = getelementptr inbounds i8, ptr %2, i64 271424
  store i32 1, ptr %40, align 8
  %41 = tail call fastcc ptr @StringAlloc(ptr noundef nonnull %2)
  %42 = getelementptr inbounds i8, ptr %2, i64 271384
  store ptr %41, ptr %42, align 8
  %43 = tail call fastcc ptr @StringAlloc(ptr noundef nonnull %2)
  %44 = getelementptr inbounds i8, ptr %2, i64 271392
  store ptr %43, ptr %44, align 8
  %45 = getelementptr inbounds i8, ptr %2, i64 271608
  tail call void @llvm.memcpy.p0.p0.i64(ptr noundef nonnull align 1 dereferenceable(6) %45, ptr noundef nonnull align 1 dereferenceable(6) @.str.1, i64 6, i1 false) #17
  %46 = load i32, ptr %13, align 4
  %47 = load i32, ptr %2, align 8
  %.not.i.i43 = icmp ult i32 %46, %47
  br i1 %.not.i.i43, label %49, label %48

48:                                               ; preds = %AllocChunk.exit
  tail call void (ptr, ptr, ...) @SynError(ptr noundef nonnull %2, ptr noundef nonnull @.str.81, i32 noundef %46)
  br label %cmsIT8SetSheetType.exit

49:                                               ; preds = %AllocChunk.exit
  %50 = zext i32 %46 to i64
  %51 = getelementptr inbounds %struct._Table, ptr %5, i64 %50
  br label %cmsIT8SetSheetType.exit

cmsIT8SetSheetType.exit:                          ; preds = %48, %49
  %.0.i.i44 = phi ptr [ %5, %48 ], [ %51, %49 ]
  %52 = tail call ptr @strncpy(ptr noundef nonnull dereferenceable(1) %.0.i.i44, ptr noundef nonnull readonly dereferenceable(9) @.str.2, i64 noundef 1023) #17
  %53 = getelementptr inbounds i8, ptr %.0.i.i44, i64 1023
  store i8 0, ptr %53, align 1
  br label %54

54:                                               ; preds = %cmsIT8SetSheetType.exit, %54
  %indvars.iv = phi i64 [ 0, %cmsIT8SetSheetType.exit ], [ %indvars.iv.next, %54 ]
  %55 = getelementptr inbounds [26 x %struct.PROPERTY], ptr @PredefinedProperties, i64 0, i64 %indvars.iv
  %56 = load ptr, ptr %55, align 16
  %57 = getelementptr inbounds i8, ptr %55, i64 8
  %58 = load i32, ptr %57, align 8
  %59 = tail call fastcc ptr @AddToList(ptr noundef nonnull %2, ptr noundef nonnull %18, ptr noundef %56, ptr noundef null, ptr noundef null, i32 noundef %58)
  %indvars.iv.next = add nuw nsw i64 %indvars.iv, 1
  %exitcond.not = icmp eq i64 %indvars.iv.next, 26
  br i1 %exitcond.not, label %.preheader, label %54, !llvm.loop !8

.preheader:                                       ; preds = %54, %.preheader
  %indvars.iv49 = phi i64 [ %indvars.iv.next50, %.preheader ], [ 0, %54 ]
  %60 = getelementptr inbounds [41 x ptr], ptr @PredefinedSampleID, i64 0, i64 %indvars.iv49
  %61 = load ptr, ptr %60, align 8
  %62 = tail call fastcc ptr @AddToList(ptr noundef nonnull %2, ptr noundef nonnull %19, ptr noundef %61, ptr noundef null, ptr noundef null, i32 noundef 0)
  %indvars.iv.next50 = add nuw nsw i64 %indvars.iv49, 1
  %exitcond52.not = icmp eq i64 %indvars.iv.next50, 41
  br i1 %exitcond52.not, label %.loopexit, label %.preheader, !llvm.loop !9

.loopexit:                                        ; preds = %.preheader, %1
  ret ptr %2
}